; Function Attrs: mustprogress nofree norecurse nosync nounwind willreturn memory(read, inaccessiblemem: none) uwtable
define noundef i64 @_ZN6casadi13CodeGenerator4hashERKSt6vectorIcSaIcEE(ptr nocapture noundef nonnull readonly align 8 dereferenceable(24) %0) local_unnamed_addr #5 align 2 {
  %2 = load ptr, ptr %0, align 8
  %3 = getelementptr inbounds i8, ptr %0, i64 8
  %4 = load ptr, ptr %3, align 8
  %5 = icmp eq ptr %2, %4
  %spec.select.i.i = select i1 %5, ptr null, ptr %2
  %6 = ptrtoint ptr %4 to i64
  %7 = ptrtoint ptr %2 to i64
  %8 = sub i64 %6, %7
  br i1 %5, label %_ZN6casadi12hash_combineIcEEvRmRKSt6vectorIT_SaIS3_EE.exit, label %.lr.ph.i.i

.lr.ph.i.i:                                       ; preds = %1, %.lr.ph.i.i
  %.05.i.i = phi i64 [ %19, %.lr.ph.i.i ], [ 0, %1 ]
  %9 = phi i64 [ %18, %.lr.ph.i.i ], [ 0, %1 ]
  %10 = getelementptr inbounds i8, ptr %spec.select.i.i, i64 %.05.i.i
  %11 = load i8, ptr %10, align 1
  %12 = sext i8 %11 to i64
  %13 = shl i64 %9, 6
  %14 = lshr i64 %9, 2
  %15 = add i64 %13, 2654435769
  %16 = add i64 %15, %14
  %17 = add i64 %16, %12
  %18 = xor i64 %17, %9
  %19 = add nuw nsw i64 %.05.i.i, 1
  %exitcond.not.i.i = icmp eq i64 %19, %8
  br i1 %exitcond.not.i.i, label %_ZN6casadi12hash_combineIcEEvRmRKSt6vectorIT_SaIS3_EE.exit, label %.lr.ph.i.i, !llvm.loop !170

_ZN6casadi12hash_combineIcEEvRmRKSt6vectorIT_SaIS3_EE.exit: ; preds = %.lr.ph.i.i, %1
  %.0 = phi i64 [ 0, %1 ], [ %18, %.lr.ph.i.i ]
  ret i64 %.0
}